; Function Attrs: mustprogress uwtable
define noundef ptr @_ZNK6google8protobuf43FeatureSetDefaults_FeatureSetEditionDefault18_InternalSerializeEPhPNS0_2io19EpsCopyOutputStreamE(ptr nocapture noundef nonnull readonly align 8 dereferenceable(40) %this, ptr noundef %target, ptr noundef %stream) unnamed_addr #3 align 2 {
entry:
  %0 = getelementptr inbounds i8, ptr %this, i64 16
  %1 = load i32, ptr %0, align 8
  %and = and i32 %1, 1
  %tobool.not = icmp eq i32 %and, 0
  br i1 %tobool.not, label %if.end, label %if.then

if.then:                                          ; preds = %entry
  %features_ = getelementptr inbounds i8, ptr %this, i64 24
  %2 = load ptr, ptr %features_, align 8
  %_cached_size_.i = getelementptr inbounds i8, ptr %2, i64 44
  %3 = load atomic i32, ptr %_cached_size_.i monotonic, align 4
  %call4 = tail call noundef ptr @_ZN6google8protobuf8internal14WireFormatLite20InternalWriteMessageEiRKNS0_11MessageLiteEiPhPNS0_2io19EpsCopyOutputStreamE(i32 noundef 2, ptr noundef nonnull align 8 dereferenceable(16) %2, i32 noundef %3, ptr noundef %target, ptr noundef %stream)
  br label %if.end

if.end:                                           ; preds = %if.then, %entry
  %target.addr.0 = phi ptr [ %call4, %if.then ], [ %target, %entry ]
  %and5 = and i32 %1, 2
  %tobool6.not = icmp eq i32 %and5, 0
  br i1 %tobool6.not, label %if.end11, label %if.then7

if.then7:                                         ; preds = %if.end
  %4 = load ptr, ptr %stream, align 8
  %cmp.not.i = icmp ugt ptr %4, %target.addr.0
  br i1 %cmp.not.i, label %_ZN6google8protobuf2io19EpsCopyOutputStream11EnsureSpaceEPh.exit, label %if.then.i9

if.then.i9:                                       ; preds = %if.then7
  %call.i10 = tail call noundef ptr @_ZN6google8protobuf2io19EpsCopyOutputStream19EnsureSpaceFallbackEPh(ptr noundef nonnull align 8 dereferenceable(60) %stream, ptr noundef %target.addr.0)
  br label %_ZN6google8protobuf2io19EpsCopyOutputStream11EnsureSpaceEPh.exit

_ZN6google8protobuf2io19EpsCopyOutputStream11EnsureSpaceEPh.exit: ; preds = %if.then7, %if.then.i9
  %retval.0.i = phi ptr [ %call.i10, %if.then.i9 ], [ %target.addr.0, %if.then7 ]
  %edition_.i = getelementptr inbounds i8, ptr %this, i64 32
  %5 = load i32, ptr %edition_.i, align 8
  %incdec.ptr2.i.i = getelementptr inbounds i8, ptr %retval.0.i, i64 1
  store i8 24, ptr %retval.0.i, align 1
  %conv.i = sext i32 %5 to i64
  %cmp.i7.i.i = icmp ugt i32 %5, 127
  br i1 %cmp.i7.i.i, label %while.body.i.i.i, label %_ZN6google8protobuf2io17CodedOutputStream32WriteVarint32SignExtendedToArrayEiPh.exit

while.body.i.i.i:                                 ; preds = %_ZN6google8protobuf2io19EpsCopyOutputStream11EnsureSpaceEPh.exit, %while.body.i.i.i
  %value.addr.i.09.i.i = phi i64 [ %shr.i.i.i, %while.body.i.i.i ], [ %conv.i, %_ZN6google8protobuf2io19EpsCopyOutputStream11EnsureSpaceEPh.exit ]
  %ptr.addr.i.08.i.i = phi ptr [ %incdec.ptr.i.i.i, %while.body.i.i.i ], [ %incdec.ptr2.i.i, %_ZN6google8protobuf2io19EpsCopyOutputStream11EnsureSpaceEPh.exit ]
  %6 = trunc i64 %value.addr.i.09.i.i to i8
  %conv.i.i.i = or i8 %6, -128
  store i8 %conv.i.i.i, ptr %ptr.addr.i.08.i.i, align 1
  %shr.i.i.i = lshr i64 %value.addr.i.09.i.i, 7
  %incdec.ptr.i.i.i = getelementptr inbounds i8, ptr %ptr.addr.i.08.i.i, i64 1
  %cmp.i.i.i = icmp ugt i64 %value.addr.i.09.i.i, 16383
  br i1 %cmp.i.i.i, label %while.body.i.i.i, label %_ZN6google8protobuf2io17CodedOutputStream32WriteVarint32SignExtendedToArrayEiPh.exit, !llvm.loop !31

_ZN6google8protobuf2io17CodedOutputStream32WriteVarint32SignExtendedToArrayEiPh.exit: ; preds = %while.body.i.i.i, %_ZN6google8protobuf2io19EpsCopyOutputStream11EnsureSpaceEPh.exit
  %ptr.addr.i.0.lcssa.i.i = phi ptr [ %incdec.ptr2.i.i, %_ZN6google8protobuf2io19EpsCopyOutputStream11EnsureSpaceEPh.exit ], [ %incdec.ptr.i.i.i, %while.body.i.i.i ]
  %value.addr.i.0.lcssa.i.i = phi i64 [ %conv.i, %_ZN6google8protobuf2io19EpsCopyOutputStream11EnsureSpaceEPh.exit ], [ %shr.i.i.i, %while.body.i.i.i ]
  %conv1.i.i.i = trunc i64 %value.addr.i.0.lcssa.i.i to i8
  %incdec.ptr2.i.i.i = getelementptr inbounds i8, ptr %ptr.addr.i.0.lcssa.i.i, i64 1
  store i8 %conv1.i.i.i, ptr %ptr.addr.i.0.lcssa.i.i, align 1
  br label %if.end11

if.end11:                                         ; preds = %_ZN6google8protobuf2io17CodedOutputStream32WriteVarint32SignExtendedToArrayEiPh.exit, %if.end
  %target.addr.1 = phi ptr [ %incdec.ptr2.i.i.i, %_ZN6google8protobuf2io17CodedOutputStream32WriteVarint32SignExtendedToArrayEiPh.exit ], [ %target.addr.0, %if.end ]
  %_internal_metadata_ = getelementptr inbounds i8, ptr %this, i64 8
  %7 = load i64, ptr %_internal_metadata_, align 8
  %and.i27 = and i64 %7, 1
  %tobool.i28.not = icmp eq i64 %and.i27, 0
  br i1 %tobool.i28.not, label %if.end17, label %if.then.i

if.then.i:                                        ; preds = %if.end11
  %and.i = and i64 %7, -2
  %8 = inttoptr i64 %and.i to ptr
  %unknown_fields.i = getelementptr inbounds i8, ptr %8, i64 8
  %call16 = tail call noundef ptr @_ZN6google8protobuf8internal10WireFormat37InternalSerializeUnknownFieldsToArrayERKNS0_15UnknownFieldSetEPhPNS0_2io19EpsCopyOutputStreamE(ptr noundef nonnull align 8 dereferenceable(24) %unknown_fields.i, ptr noundef %target.addr.1, ptr noundef %stream)
  br label %if.end17

if.end17:                                         ; preds = %if.then.i, %if.end11
  %target.addr.2 = phi ptr [ %call16, %if.then.i ], [ %target.addr.1, %if.end11 ]
  ret ptr %target.addr.2
}